target datalayout = "e-m:e-p270:32:32-p271:32:32-p272:64:64-i64:64-i128:128-f80:128-n8:16:32:64-S128"
target triple = "x86_64-unknown-linux-gnu"

%struct.E1000EState = type { %struct.PCIDevice, ptr, %struct.NICConf, %struct.MemoryRegion, %struct.MemoryRegion, %struct.MemoryRegion, %struct.MemoryRegion, i32, i16, i16, i16, i16, i8, %struct.E1000Core, i8, i8 }
%struct.PCIDevice = type { %struct.DeviceState, i8, i8, ptr, ptr, ptr, ptr, ptr, i32, %struct.PCIReqIDCache, [64 x i8], [7 x %struct.PCIIORegion], %struct.AddressSpace, %struct.MemoryRegion, %struct.MemoryRegion, ptr, ptr, [3 x ptr], i8, i8, i32, i8, i32, ptr, ptr, ptr, ptr, ptr, ptr, %struct.MemoryRegion, %struct.MemoryRegion, %struct.MemoryRegion, ptr, i8, i32, i8, %struct.PCIExpressDevice, ptr, ptr, i32, i8, %struct.MemoryRegion, i32, ptr, ptr, ptr, ptr, ptr, i32 }
%struct.DeviceState = type { %struct.Object, ptr, ptr, i8, i8, i64, ptr, i32, i8, ptr, %struct.NamedGPIOListHead, %struct.NamedClockListHead, %struct.BusStateHead, i32, i32, i32, %struct.ResettableState, ptr, %struct.MemReentrancyGuard }
%struct.Object = type { ptr, ptr, ptr, i32, ptr }
%struct.NamedGPIOListHead = type { ptr }
%struct.NamedClockListHead = type { ptr }
%struct.BusStateHead = type { ptr }
%struct.ResettableState = type { i32, i8, i8 }
%struct.MemReentrancyGuard = type { i8 }
%struct.PCIReqIDCache = type { ptr, i32 }
%struct.PCIIORegion = type { i64, i64, i8, ptr, ptr }
%struct.AddressSpace = type { %struct.rcu_head, ptr, ptr, ptr, i32, i32, ptr, %union.anon, %union.anon.0 }
%struct.rcu_head = type { ptr, ptr }
%union.anon = type { %struct.QTailQLink }
%struct.QTailQLink = type { ptr, ptr }
%union.anon.0 = type { %struct.QTailQLink }
%struct.PCIExpressDevice = type { i8, i8, i8, i16, %struct.PCIEAERLog, i16, i16, i16, %struct.PCIESriovPF, %struct.PCIESriovVF }
%struct.PCIEAERLog = type { i16, i16, ptr }
%struct.PCIESriovPF = type { i16, [7 x i8], ptr, ptr }
%struct.PCIESriovVF = type { ptr, i16 }
%struct.NICConf = type { %struct.MACAddr, %struct.NICPeers, i32 }
%struct.MACAddr = type { [6 x i8] }
%struct.NICPeers = type { [1024 x ptr], i32 }
%struct.MemoryRegion = type { %struct.Object, i8, i8, i8, i8, i8, i8, i8, i8, i8, i8, ptr, ptr, ptr, ptr, ptr, ptr, i32, i128, i64, ptr, i64, i8, i8, i8, i8, i8, ptr, i64, i32, %union.anon.1, %union.anon.2, %union.anon.3, ptr, i32, ptr, ptr, i8 }
%union.anon.1 = type { %struct.QTailQLink }
%union.anon.2 = type { %struct.QTailQLink }
%union.anon.3 = type { %struct.QTailQLink }
%struct.E1000Core = type { [32768 x i32], [7 x [32 x i16]], [64 x i16], [4 x i32], i32, i32, i8, ptr, [2 x %struct.e1000e_tx], ptr, i8, i32, i32, %struct.E1000IntrDelayTimer_st, %struct.E1000IntrDelayTimer_st, %struct.E1000IntrDelayTimer_st, %struct.E1000IntrDelayTimer_st, %struct.E1000IntrDelayTimer_st, %struct.E1000IntrDelayTimer_st, [5 x %struct.E1000IntrDelayTimer_st], ptr, i32, [5 x i32], i16, [6 x i8], ptr, ptr, ptr, i64 }
%struct.e1000e_tx = type { %struct.e1000x_txd_props, i8, i8, i8, ptr }
%struct.e1000x_txd_props = type { i8, i8, i16, i8, i8, i16, i32, i8, i16, i8, i8, i8 }
%struct.E1000IntrDelayTimer_st = type { ptr, i8, i32, i32, ptr }
%struct.timeval = type { i64, i64 }

@.str = private unnamed_addr constant [7 x i8] c"e1000e\00", align 1
@.str.1 = private unnamed_addr constant [11 x i8] c"pci-device\00", align 1
@.str.5 = private unnamed_addr constant [24 x i8] c"../qemu/hw/net/e1000e.c\00", align 1
@__func__.E1000E = private unnamed_addr constant [7 x i8] c"E1000E\00", align 1
@.str.15 = private unnamed_addr constant [106 x i8] c"/home/dtcxzyw/WorkSpace/Projects/compilers/llvm-opt-benchmark/bench/qemu/qemu/include/hw/pci/pci_device.h\00", align 1
@trace_events_enabled_count = external global i32, align 4
@message_with_timestamp = external global i8, align 1
@qemu_loglevel = external global i32, align 4
@__func__.PCI_DEVICE = private unnamed_addr constant [11 x i8] c"PCI_DEVICE\00", align 1
@_TRACE_E1000E_CB_PCI_UNINIT_DSTATE = external global i16, align 2
@.str.51 = private unnamed_addr constant [57 x i8] c"%d@%zu.%06zu:e1000e_cb_pci_uninit E1000E PCI unit entry\0A\00", align 1
@.str.52 = private unnamed_addr constant [44 x i8] c"e1000e_cb_pci_uninit E1000E PCI unit entry\0A\00", align 1

; Function Attrs: nounwind sspstrong uwtable
define internal zeroext i1 @qemu_loglevel_mask(i32 noundef %mask) #0 {
entry:
  %mask.addr = alloca i32, align 4
  store i32 %mask, ptr %mask.addr, align 4
  %0 = load i32, ptr @qemu_loglevel, align 4
  %1 = load i32, ptr %mask.addr, align 4
  %and = and i32 %0, %1
  %cmp = icmp ne i32 %and, 0
  ret i1 %cmp
}

; Function Attrs: nounwind sspstrong uwtable
define internal void @e1000e_unuse_msix_vectors(ptr noundef %s, i32 noundef %num_vectors) #0 {
entry:
  %s.addr = alloca ptr, align 8
  %num_vectors.addr = alloca i32, align 4
  %i = alloca i32, align 4
  store ptr %s, ptr %s.addr, align 8
  store i32 %num_vectors, ptr %num_vectors.addr, align 4
  store i32 0, ptr %i, align 4
  br label %for.cond

for.cond:                                         ; preds = %for.inc, %entry
  %0 = load i32, ptr %i, align 4
  %1 = load i32, ptr %num_vectors.addr, align 4
  %cmp = icmp slt i32 %0, %1
  br i1 %cmp, label %for.body, label %for.end

for.body:                                         ; preds = %for.cond
  %2 = load ptr, ptr %s.addr, align 8
  %call = call ptr @PCI_DEVICE(ptr noundef %2)
  %3 = load i32, ptr %i, align 4
  call void @msix_vector_unuse(ptr noundef %call, i32 noundef %3)
  br label %for.inc

for.inc:                                          ; preds = %for.body
  %4 = load i32, ptr %i, align 4
  %inc = add i32 %4, 1
  store i32 %inc, ptr %i, align 4
  br label %for.cond, !llvm.loop !9

for.end:                                          ; preds = %for.cond
  ret void
}

; Function Attrs: nounwind sspstrong uwtable
define internal ptr @PCI_DEVICE(ptr noundef %obj) #0 {
entry:
  %obj.addr = alloca ptr, align 8
  store ptr %obj, ptr %obj.addr, align 8
  %0 = load ptr, ptr %obj.addr, align 8
  %call = call ptr @object_dynamic_cast_assert(ptr noundef %0, ptr noundef @.str.1, ptr noundef @.str.15, i32 noundef 10, ptr noundef @__func__.PCI_DEVICE)
  ret ptr %call
}

; Function Attrs: nounwind sspstrong uwtable
define internal void @_nocheck__trace_e1000e_cb_pci_uninit() #0 {
entry:
  %_now = alloca %struct.timeval, align 8
  %0 = load i32, ptr @trace_events_enabled_count, align 4
  %tobool = icmp ne i32 %0, 0
  %lnot = xor i1 %tobool, true
  %lnot1 = xor i1 %lnot, true
  %lnot.ext = zext i1 %lnot1 to i32
  %conv = sext i32 %lnot.ext to i64
  %tobool2 = icmp ne i64 %conv, 0
  br i1 %tobool2, label %land.lhs.true, label %if.end11

land.lhs.true:                                    ; preds = %entry
  %1 = load i16, ptr @_TRACE_E1000E_CB_PCI_UNINIT_DSTATE, align 2
  %conv3 = zext i16 %1 to i32
  %tobool4 = icmp ne i32 %conv3, 0
  br i1 %tobool4, label %land.lhs.true5, label %if.end11

land.lhs.true5:                                   ; preds = %land.lhs.true
  %call = call zeroext i1 @qemu_loglevel_mask(i32 noundef 32768)
  br i1 %call, label %if.then, label %if.end11

if.then:                                          ; preds = %land.lhs.true5
  %2 = load i8, ptr @message_with_timestamp, align 1
  %tobool7 = trunc i8 %2 to i1
  br i1 %tobool7, label %if.then8, label %if.else

if.then8:                                         ; preds = %if.then
  %call9 = call i32 @gettimeofday(ptr noundef %_now, ptr noundef null) #6
  %call10 = call i32 @qemu_get_thread_id()
  %tv_sec = getelementptr inbounds %struct.timeval, ptr %_now, i32 0, i32 0
  %3 = load i64, ptr %tv_sec, align 8
  %tv_usec = getelementptr inbounds %struct.timeval, ptr %_now, i32 0, i32 1
  %4 = load i64, ptr %tv_usec, align 8
  call void (ptr, ...) @qemu_log(ptr noundef @.str.51, i32 noundef %call10, i64 noundef %3, i64 noundef %4)
  br label %if.end

if.else:                                          ; preds = %if.then
  call void (ptr, ...) @qemu_log(ptr noundef @.str.52)
  br label %if.end

if.end:                                           ; preds = %if.else, %if.then8
  br label %if.end11

if.end11:                                         ; preds = %if.end, %land.lhs.true5, %land.lhs.true, %entry
  ret void
}

; Function Attrs: nounwind sspstrong uwtable
define internal void @e1000e_cleanup_msix(ptr noundef %s) #0 {
entry:
  %s.addr = alloca ptr, align 8
  store ptr %s, ptr %s.addr, align 8
  %0 = load ptr, ptr %s.addr, align 8
  %call = call ptr @PCI_DEVICE(ptr noundef %0)
  %call1 = call i32 @msix_present(ptr noundef %call)
  %tobool = icmp ne i32 %call1, 0
  br i1 %tobool, label %if.then, label %if.end

if.then:                                          ; preds = %entry
  %1 = load ptr, ptr %s.addr, align 8
  call void @e1000e_unuse_msix_vectors(ptr noundef %1, i32 noundef 5)
  %2 = load ptr, ptr %s.addr, align 8
  %call2 = call ptr @PCI_DEVICE(ptr noundef %2)
  %3 = load ptr, ptr %s.addr, align 8
  %msix = getelementptr inbounds %struct.E1000EState, ptr %3, i32 0, i32 6
  %4 = load ptr, ptr %s.addr, align 8
  %msix3 = getelementptr inbounds %struct.E1000EState, ptr %4, i32 0, i32 6
  call void @msix_uninit(ptr noundef %call2, ptr noundef %msix, ptr noundef %msix3)
  br label %if.end

if.end:                                           ; preds = %if.then, %entry
  ret void
}

; Function Attrs: nounwind sspstrong uwtable
define internal void @trace_e1000e_cb_pci_uninit() #0 {
entry:
  call void @_nocheck__trace_e1000e_cb_pci_uninit()
  ret void
}

; Function Attrs: nounwind sspstrong uwtable
define internal ptr @E1000E(ptr noundef %obj) #0 {
entry:
  %obj.addr = alloca ptr, align 8
  store ptr %obj, ptr %obj.addr, align 8
  %0 = load ptr, ptr %obj.addr, align 8
  %call = call ptr @object_dynamic_cast_assert(ptr noundef %0, ptr noundef @.str, ptr noundef @.str.5, i32 noundef 60, ptr noundef @__func__.E1000E)
  ret ptr %call
}

; Function Attrs: nounwind sspstrong uwtable
define internal void @e1000e_pci_uninit(ptr noundef %pci_dev) #0 {
entry:
  %pci_dev.addr = alloca ptr, align 8
  %s = alloca ptr, align 8
  store ptr %pci_dev, ptr %pci_dev.addr, align 8
  %0 = load ptr, ptr %pci_dev.addr, align 8
  %call = call ptr @E1000E(ptr noundef %0)
  store ptr %call, ptr %s, align 8
  call void @trace_e1000e_cb_pci_uninit()
  %1 = load ptr, ptr %s, align 8
  %core = getelementptr inbounds %struct.E1000EState, ptr %1, i32 0, i32 13
  call void @e1000e_core_pci_uninit(ptr noundef %core)
  %2 = load ptr, ptr %pci_dev.addr, align 8
  call void @pcie_aer_exit(ptr noundef %2)
  %3 = load ptr, ptr %pci_dev.addr, align 8
  call void @pcie_cap_exit(ptr noundef %3)
  %4 = load ptr, ptr %s, align 8
  %nic = getelementptr inbounds %struct.E1000EState, ptr %4, i32 0, i32 1
  %5 = load ptr, ptr %nic, align 16
  call void @qemu_del_nic(ptr noundef %5)
  %6 = load ptr, ptr %s, align 8
  call void @e1000e_cleanup_msix(ptr noundef %6)
  %7 = load ptr, ptr %pci_dev.addr, align 8
  call void @msi_uninit(ptr noundef %7)
  ret void
}