; Function Attrs: nounwind sspstrong uwtable
define internal void @e1000e_pci_uninit(ptr noundef %pci_dev) #0 {
entry:
  %_now.i.i = alloca %struct.timeval, align 8
  %call.i = tail call ptr @object_dynamic_cast_assert(ptr noundef %pci_dev, ptr noundef nonnull @.str, ptr noundef nonnull @.str.5, i32 noundef 60, ptr noundef nonnull @__func__.E1000E) #9
  call void @llvm.lifetime.start.p0(i64 16, ptr nonnull %_now.i.i)
  %0 = load i32, ptr @trace_events_enabled_count, align 4
  %tobool.i.i = icmp ne i32 %0, 0
  %1 = load i16, ptr @_TRACE_E1000E_CB_PCI_UNINIT_DSTATE, align 2
  %tobool4.i.i = icmp ne i16 %1, 0
  %or.cond.i.i = select i1 %tobool.i.i, i1 %tobool4.i.i, i1 false
  br i1 %or.cond.i.i, label %land.lhs.true5.i.i, label %trace_e1000e_cb_pci_uninit.exit

land.lhs.true5.i.i:                               ; preds = %entry
  %2 = load i32, ptr @qemu_loglevel, align 4
  %and.i.i.i = and i32 %2, 32768
  %cmp.i.not.i.i = icmp eq i32 %and.i.i.i, 0
  br i1 %cmp.i.not.i.i, label %trace_e1000e_cb_pci_uninit.exit, label %if.then.i.i

if.then.i.i:                                      ; preds = %land.lhs.true5.i.i
  %3 = load i8, ptr @message_with_timestamp, align 1
  %tobool7.i.i = trunc i8 %3 to i1
  br i1 %tobool7.i.i, label %if.then8.i.i, label %if.else.i.i

if.then8.i.i:                                     ; preds = %if.then.i.i
  %call9.i.i = call i32 @gettimeofday(ptr noundef nonnull %_now.i.i, ptr noundef null) #9
  %call10.i.i = tail call i32 @qemu_get_thread_id() #9
  %4 = load i64, ptr %_now.i.i, align 8
  %tv_usec.i.i = getelementptr inbounds nuw i8, ptr %_now.i.i, i64 8
  %5 = load i64, ptr %tv_usec.i.i, align 8
  tail call void (ptr, ...) @qemu_log(ptr noundef nonnull @.str.51, i32 noundef %call10.i.i, i64 noundef %4, i64 noundef %5) #9
  br label %trace_e1000e_cb_pci_uninit.exit

if.else.i.i:                                      ; preds = %if.then.i.i
  tail call void (ptr, ...) @qemu_log(ptr noundef nonnull @.str.52) #9
  br label %trace_e1000e_cb_pci_uninit.exit

trace_e1000e_cb_pci_uninit.exit:                  ; preds = %entry, %land.lhs.true5.i.i, %if.then8.i.i, %if.else.i.i
  call void @llvm.lifetime.end.p0(i64 16, ptr nonnull %_now.i.i)
  %core = getelementptr inbounds nuw i8, ptr %call.i, i64 11936
  tail call void @e1000e_core_pci_uninit(ptr noundef nonnull %core) #9
  tail call void @pcie_aer_exit(ptr noundef %pci_dev) #9
  tail call void @pcie_cap_exit(ptr noundef %pci_dev) #9
  %nic = getelementptr inbounds nuw i8, ptr %call.i, i64 2608
  %6 = load ptr, ptr %nic, align 16
  tail call void @qemu_del_nic(ptr noundef %6) #9
  %call.i.i = tail call ptr @object_dynamic_cast_assert(ptr noundef %call.i, ptr noundef nonnull @.str.1, ptr noundef nonnull @.str.15, i32 noundef 10, ptr noundef nonnull @__func__.PCI_DEVICE) #9
  %call1.i = tail call i32 @msix_present(ptr noundef %call.i.i) #9
  %tobool.not.i = icmp eq i32 %call1.i, 0
  br i1 %tobool.not.i, label %e1000e_cleanup_msix.exit, label %for.body.i.i

for.body.i.i:                                     ; preds = %trace_e1000e_cb_pci_uninit.exit, %for.body.i.i
  %i.03.i.i = phi i32 [ %inc.i.i, %for.body.i.i ], [ 0, %trace_e1000e_cb_pci_uninit.exit ]
  %call.i.i.i = tail call ptr @object_dynamic_cast_assert(ptr noundef %call.i, ptr noundef nonnull @.str.1, ptr noundef nonnull @.str.15, i32 noundef 10, ptr noundef nonnull @__func__.PCI_DEVICE) #9
  tail call void @msix_vector_unuse(ptr noundef %call.i.i.i, i32 noundef %i.03.i.i) #9
  %inc.i.i = add nuw nsw i32 %i.03.i.i, 1
  %exitcond.not.i.i = icmp eq i32 %inc.i.i, 5
  br i1 %exitcond.not.i.i, label %e1000e_unuse_msix_vectors.exit.i, label %for.body.i.i, !llvm.loop !9

e1000e_unuse_msix_vectors.exit.i:                 ; preds = %for.body.i.i
  %call.i5.i = tail call ptr @object_dynamic_cast_assert(ptr noundef %call.i, ptr noundef nonnull @.str.1, ptr noundef nonnull @.str.15, i32 noundef 10, ptr noundef nonnull @__func__.PCI_DEVICE) #9
  %msix.i = getelementptr inbounds nuw i8, ptr %call.i, i64 11648
  tail call void @msix_uninit(ptr noundef %call.i5.i, ptr noundef nonnull %msix.i, ptr noundef nonnull %msix.i) #9
  br label %e1000e_cleanup_msix.exit

e1000e_cleanup_msix.exit:                         ; preds = %trace_e1000e_cb_pci_uninit.exit, %e1000e_unuse_msix_vectors.exit.i
  tail call void @msi_uninit(ptr noundef %pci_dev) #9
  ret void
}